target datalayout = "e-m:e-p270:32:32-p271:32:32-p272:64:64-i64:64-i128:128-f80:128-n8:16:32:64-S128"
target triple = "x86_64-pc-linux-gnu"

%"class.LIEF::PE::ResourceDirectory" = type { %"class.LIEF::PE::ResourceNode.base", i32, i32, i16, i16, i16, i16, [4 x i8] }
%"class.LIEF::PE::ResourceNode.base" = type <{ %"class.LIEF::Object", i32, i32, %"class.std::__cxx11::basic_string", %"class.std::vector", i32 }>
%"class.LIEF::Object" = type { ptr }
%"class.std::__cxx11::basic_string" = type { %"struct.std::__cxx11::basic_string<char16_t>::_Alloc_hider", i64, %union.anon }
%"struct.std::__cxx11::basic_string<char16_t>::_Alloc_hider" = type { ptr }
%union.anon = type { i64, [8 x i8] }
%"class.std::vector" = type { %"struct.std::_Vector_base" }
%"struct.std::_Vector_base" = type { %"struct.std::_Vector_base<std::unique_ptr<LIEF::PE::ResourceNode>, std::allocator<std::unique_ptr<LIEF::PE::ResourceNode>>>::_Vector_impl" }
%"struct.std::_Vector_base<std::unique_ptr<LIEF::PE::ResourceNode>, std::allocator<std::unique_ptr<LIEF::PE::ResourceNode>>>::_Vector_impl" = type { %"struct.std::_Vector_base<std::unique_ptr<LIEF::PE::ResourceNode>, std::allocator<std::unique_ptr<LIEF::PE::ResourceNode>>>::_Vector_impl_data" }
%"struct.std::_Vector_base<std::unique_ptr<LIEF::PE::ResourceNode>, std::allocator<std::unique_ptr<LIEF::PE::ResourceNode>>>::_Vector_impl_data" = type { ptr, ptr, ptr }
%"struct.LIEF::PE::details::pe_resource_directory_table" = type { i32, i32, i16, i16, i16, i16 }
%"class.LIEF::PE::ResourceNode" = type <{ %"class.LIEF::Object", i32, i32, %"class.std::__cxx11::basic_string", %"class.std::vector", i32, [4 x i8] }>
%"class.std::allocator" = type { i8 }

; Function Attrs: mustprogress nounwind uwtable
define linkonce_odr hidden void @_ZNSt15__new_allocatorISt10unique_ptrIN4LIEF2PE12ResourceNodeESt14default_deleteIS3_EEEC2Ev(ptr noundef nonnull align 1 dereferenceable(1) %0) unnamed_addr #0 comdat align 2 {
  %2 = alloca ptr, align 8
  store ptr %0, ptr %2, align 8, !tbaa !83
  ret void
}

; Function Attrs: mustprogress nounwind uwtable
define linkonce_odr hidden void @_ZNSt12_Vector_baseISt10unique_ptrIN4LIEF2PE12ResourceNodeESt14default_deleteIS3_EESaIS6_EE17_Vector_impl_dataC2Ev(ptr noundef nonnull align 8 dereferenceable(24) %0) unnamed_addr #0 comdat align 2 {
  %2 = alloca ptr, align 8
  store ptr %0, ptr %2, align 8, !tbaa !78
  %3 = load ptr, ptr %2, align 8
  %4 = getelementptr inbounds nuw %"struct.std::_Vector_base<std::unique_ptr<LIEF::PE::ResourceNode>, std::allocator<std::unique_ptr<LIEF::PE::ResourceNode>>>::_Vector_impl_data", ptr %3, i32 0, i32 0
  store ptr null, ptr %4, align 8, !tbaa !80
  %5 = getelementptr inbounds nuw %"struct.std::_Vector_base<std::unique_ptr<LIEF::PE::ResourceNode>, std::allocator<std::unique_ptr<LIEF::PE::ResourceNode>>>::_Vector_impl_data", ptr %3, i32 0, i32 1
  store ptr null, ptr %5, align 8, !tbaa !81
  %6 = getelementptr inbounds nuw %"struct.std::_Vector_base<std::unique_ptr<LIEF::PE::ResourceNode>, std::allocator<std::unique_ptr<LIEF::PE::ResourceNode>>>::_Vector_impl_data", ptr %3, i32 0, i32 2
  store ptr null, ptr %6, align 8, !tbaa !82
  ret void
}

; Function Attrs: mustprogress nounwind uwtable
define linkonce_odr hidden void @_ZNSaISt10unique_ptrIN4LIEF2PE12ResourceNodeESt14default_deleteIS2_EEEC2Ev(ptr noundef nonnull align 1 dereferenceable(1) %0) unnamed_addr #0 comdat align 2 {
  %2 = alloca ptr, align 8
  store ptr %0, ptr %2, align 8, !tbaa !76
  %3 = load ptr, ptr %2, align 8
  call void @_ZNSt15__new_allocatorISt10unique_ptrIN4LIEF2PE12ResourceNodeESt14default_deleteIS3_EEEC2Ev(ptr noundef nonnull align 1 dereferenceable(1) %3) #9
  ret void
}

; Function Attrs: mustprogress nounwind uwtable
define linkonce_odr hidden void @_ZNSt15__new_allocatorIDsEC2ERKS0_(ptr noundef nonnull align 1 dereferenceable(1) %0, ptr noundef nonnull align 1 dereferenceable(1) %1) unnamed_addr #0 comdat align 2 {
  %3 = alloca ptr, align 8
  %4 = alloca ptr, align 8
  store ptr %0, ptr %3, align 8, !tbaa !65
  store ptr %1, ptr %4, align 8, !tbaa !65
  ret void
}

; Function Attrs: mustprogress nounwind uwtable
define linkonce_odr hidden void @_ZNSt12_Vector_baseISt10unique_ptrIN4LIEF2PE12ResourceNodeESt14default_deleteIS3_EESaIS6_EE12_Vector_implC2Ev(ptr noundef nonnull align 8 dereferenceable(24) %0) unnamed_addr #0 comdat align 2 {
  %2 = alloca ptr, align 8
  store ptr %0, ptr %2, align 8, !tbaa !74
  %3 = load ptr, ptr %2, align 8
  call void @_ZNSaISt10unique_ptrIN4LIEF2PE12ResourceNodeESt14default_deleteIS2_EEEC2Ev(ptr noundef nonnull align 1 dereferenceable(1) %3) #9
  call void @_ZNSt12_Vector_baseISt10unique_ptrIN4LIEF2PE12ResourceNodeESt14default_deleteIS3_EESaIS6_EE17_Vector_impl_dataC2Ev(ptr noundef nonnull align 8 dereferenceable(24) %3) #9
  ret void
}

; Function Attrs: mustprogress nounwind uwtable
define linkonce_odr hidden void @_ZNSt11char_traitsIDsE6assignERDsRKDs(ptr noundef nonnull align 2 dereferenceable(2) %0, ptr noundef nonnull align 2 dereferenceable(2) %1) #0 comdat align 2 {
  %3 = alloca ptr, align 8
  %4 = alloca ptr, align 8
  store ptr %0, ptr %3, align 8, !tbaa !63
  store ptr %1, ptr %4, align 8, !tbaa !63
  %5 = load ptr, ptr %4, align 8, !tbaa !63
  %6 = load i16, ptr %5, align 2, !tbaa !68
  %7 = load ptr, ptr %3, align 8, !tbaa !63
  store i16 %6, ptr %7, align 2, !tbaa !68
  ret void
}

; Function Attrs: mustprogress nounwind uwtable
define linkonce_odr hidden noundef ptr @_ZNKSt7__cxx1112basic_stringIDsSt11char_traitsIDsESaIDsEE7_M_dataEv(ptr noundef nonnull align 8 dereferenceable(32) %0) #0 comdat align 2 {
  %2 = alloca ptr, align 8
  store ptr %0, ptr %2, align 8, !tbaa !55
  %3 = load ptr, ptr %2, align 8
  %4 = getelementptr inbounds nuw %"class.std::__cxx11::basic_string", ptr %3, i32 0, i32 0
  %5 = getelementptr inbounds nuw %"struct.std::__cxx11::basic_string<char16_t>::_Alloc_hider", ptr %4, i32 0, i32 0
  %6 = load ptr, ptr %5, align 8, !tbaa !71
  ret ptr %6
}

; Function Attrs: mustprogress nounwind uwtable
define linkonce_odr hidden void @_ZNSt7__cxx1112basic_stringIDsSt11char_traitsIDsESaIDsEE9_M_lengthEm(ptr noundef nonnull align 8 dereferenceable(32) %0, i64 noundef %1) #0 comdat align 2 {
  %3 = alloca ptr, align 8
  %4 = alloca i64, align 8
  store ptr %0, ptr %3, align 8, !tbaa !55
  store i64 %1, ptr %4, align 8, !tbaa !67
  %5 = load ptr, ptr %3, align 8
  %6 = load i64, ptr %4, align 8, !tbaa !67
  %7 = getelementptr inbounds nuw %"class.std::__cxx11::basic_string", ptr %5, i32 0, i32 1
  store i64 %6, ptr %7, align 8, !tbaa !70
  ret void
}

; Function Attrs: mustprogress nounwind uwtable
define linkonce_odr hidden void @_ZNSaIDsEC2ERKS_(ptr noundef nonnull align 1 dereferenceable(1) %0, ptr noundef nonnull align 1 dereferenceable(1) %1) unnamed_addr #0 comdat align 2 {
  %3 = alloca ptr, align 8
  %4 = alloca ptr, align 8
  store ptr %0, ptr %3, align 8, !tbaa !59
  store ptr %1, ptr %4, align 8, !tbaa !59
  %5 = load ptr, ptr %3, align 8
  %6 = load ptr, ptr %4, align 8, !tbaa !59
  call void @_ZNSt15__new_allocatorIDsEC2ERKS0_(ptr noundef nonnull align 1 dereferenceable(1) %5, ptr noundef nonnull align 1 dereferenceable(1) %6) #9
  ret void
}

; Function Attrs: mustprogress nounwind uwtable
define linkonce_odr hidden void @_ZNSt15__new_allocatorIDsEC2Ev(ptr noundef nonnull align 1 dereferenceable(1) %0) unnamed_addr #0 comdat align 2 {
  %2 = alloca ptr, align 8
  store ptr %0, ptr %2, align 8, !tbaa !65
  ret void
}

; Function Attrs: mustprogress nounwind uwtable
define linkonce_odr hidden noundef ptr @_ZNSt19__ptr_traits_ptr_toIPDsDsLb0EE10pointer_toERDs(ptr noundef nonnull align 2 dereferenceable(2) %0) #0 comdat align 2 {
  %2 = alloca ptr, align 8
  store ptr %0, ptr %2, align 8, !tbaa !63
  %3 = load ptr, ptr %2, align 8, !tbaa !63
  ret ptr %3
}

; Function Attrs: mustprogress nounwind uwtable
define linkonce_odr hidden void @_ZNSt12_Vector_baseISt10unique_ptrIN4LIEF2PE12ResourceNodeESt14default_deleteIS3_EESaIS6_EEC2Ev(ptr noundef nonnull align 8 dereferenceable(24) %0) unnamed_addr #0 comdat align 2 {
  %2 = alloca ptr, align 8
  store ptr %0, ptr %2, align 8, !tbaa !72
  %3 = load ptr, ptr %2, align 8
  %4 = getelementptr inbounds nuw %"struct.std::_Vector_base", ptr %3, i32 0, i32 0
  call void @_ZNSt12_Vector_baseISt10unique_ptrIN4LIEF2PE12ResourceNodeESt14default_deleteIS3_EESaIS6_EE12_Vector_implC2Ev(ptr noundef nonnull align 8 dereferenceable(24) %4) #9
  ret void
}

; Function Attrs: mustprogress nounwind uwtable
define linkonce_odr hidden void @_ZNSt7__cxx1112basic_stringIDsSt11char_traitsIDsESaIDsEE13_M_set_lengthEm(ptr noundef nonnull align 8 dereferenceable(32) %0, i64 noundef %1) #0 comdat align 2 {
  %3 = alloca ptr, align 8
  %4 = alloca i64, align 8
  %5 = alloca i16, align 2
  store ptr %0, ptr %3, align 8, !tbaa !55
  store i64 %1, ptr %4, align 8, !tbaa !67
  %6 = load ptr, ptr %3, align 8
  %7 = load i64, ptr %4, align 8, !tbaa !67
  call void @_ZNSt7__cxx1112basic_stringIDsSt11char_traitsIDsESaIDsEE9_M_lengthEm(ptr noundef nonnull align 8 dereferenceable(32) %6, i64 noundef %7)
  %8 = call noundef ptr @_ZNKSt7__cxx1112basic_stringIDsSt11char_traitsIDsESaIDsEE7_M_dataEv(ptr noundef nonnull align 8 dereferenceable(32) %6)
  %9 = load i64, ptr %4, align 8, !tbaa !67
  %10 = getelementptr inbounds nuw i16, ptr %8, i64 %9
  call void @llvm.lifetime.start.p0(i64 2, ptr %5) #9
  store i16 0, ptr %5, align 2, !tbaa !68
  call void @_ZNSt11char_traitsIDsE6assignERDsRKDs(ptr noundef nonnull align 2 dereferenceable(2) %10, ptr noundef nonnull align 2 dereferenceable(2) %5) #9
  call void @llvm.lifetime.end.p0(i64 2, ptr %5) #9
  ret void
}

; Function Attrs: alwaysinline mustprogress nounwind uwtable
define linkonce_odr hidden noundef ptr @_ZNSt7__cxx1112basic_stringIDsSt11char_traitsIDsESaIDsEE17_M_use_local_dataEv(ptr noundef nonnull align 8 dereferenceable(32) %0) #5 comdat align 2 {
  %2 = alloca ptr, align 8
  store ptr %0, ptr %2, align 8, !tbaa !55
  %3 = load ptr, ptr %2, align 8
  %4 = call noundef ptr @_ZNSt7__cxx1112basic_stringIDsSt11char_traitsIDsESaIDsEE13_M_local_dataEv(ptr noundef nonnull align 8 dereferenceable(32) %3)
  ret ptr %4
}

; Function Attrs: mustprogress nounwind uwtable
define linkonce_odr hidden void @_ZNSt15__new_allocatorIDsED2Ev(ptr noundef nonnull align 1 dereferenceable(1) %0) unnamed_addr #0 comdat align 2 {
  %2 = alloca ptr, align 8
  store ptr %0, ptr %2, align 8, !tbaa !65
  ret void
}

; Function Attrs: mustprogress nounwind uwtable
define linkonce_odr hidden void @_ZNSt7__cxx1112basic_stringIDsSt11char_traitsIDsESaIDsEE12_Alloc_hiderC2EPDsOS3_(ptr noundef nonnull align 8 dereferenceable(8) %0, ptr noundef %1, ptr noundef nonnull align 1 dereferenceable(1) %2) unnamed_addr #0 comdat align 2 {
  %4 = alloca ptr, align 8
  %5 = alloca ptr, align 8
  %6 = alloca ptr, align 8
  store ptr %0, ptr %4, align 8, !tbaa !61
  store ptr %1, ptr %5, align 8, !tbaa !63
  store ptr %2, ptr %6, align 8, !tbaa !59
  %7 = load ptr, ptr %4, align 8
  %8 = load ptr, ptr %6, align 8, !tbaa !59
  call void @_ZNSaIDsEC2ERKS_(ptr noundef nonnull align 1 dereferenceable(1) %7, ptr noundef nonnull align 1 dereferenceable(1) %8) #9
  %9 = getelementptr inbounds nuw %"struct.std::__cxx11::basic_string<char16_t>::_Alloc_hider", ptr %7, i32 0, i32 0
  %10 = load ptr, ptr %5, align 8, !tbaa !63
  store ptr %10, ptr %9, align 8, !tbaa !64
  ret void
}

; Function Attrs: mustprogress nounwind uwtable
define linkonce_odr hidden void @_ZNSaIDsEC2Ev(ptr noundef nonnull align 1 dereferenceable(1) %0) unnamed_addr #0 comdat align 2 {
  %2 = alloca ptr, align 8
  store ptr %0, ptr %2, align 8, !tbaa !59
  %3 = load ptr, ptr %2, align 8
  call void @_ZNSt15__new_allocatorIDsEC2Ev(ptr noundef nonnull align 1 dereferenceable(1) %3) #9
  ret void
}

; Function Attrs: mustprogress nounwind uwtable
define linkonce_odr hidden noundef ptr @_ZNSt7__cxx1112basic_stringIDsSt11char_traitsIDsESaIDsEE13_M_local_dataEv(ptr noundef nonnull align 8 dereferenceable(32) %0) #0 comdat align 2 {
  %2 = alloca ptr, align 8
  store ptr %0, ptr %2, align 8, !tbaa !55
  %3 = load ptr, ptr %2, align 8
  %4 = getelementptr inbounds nuw %"class.std::__cxx11::basic_string", ptr %3, i32 0, i32 2
  %5 = getelementptr inbounds [8 x i16], ptr %4, i64 0, i64 0
  %6 = call noundef ptr @_ZNSt19__ptr_traits_ptr_toIPDsDsLb0EE10pointer_toERDs(ptr noundef nonnull align 2 dereferenceable(2) %5) #9
  ret ptr %6
}

; Function Attrs: mustprogress nounwind uwtable
define linkonce_odr hidden void @_ZNSt6vectorISt10unique_ptrIN4LIEF2PE12ResourceNodeESt14default_deleteIS3_EESaIS6_EEC2Ev(ptr noundef nonnull align 8 dereferenceable(24) %0) unnamed_addr #0 comdat align 2 {
  %2 = alloca ptr, align 8
  store ptr %0, ptr %2, align 8, !tbaa !57
  %3 = load ptr, ptr %2, align 8
  call void @_ZNSt12_Vector_baseISt10unique_ptrIN4LIEF2PE12ResourceNodeESt14default_deleteIS3_EESaIS6_EEC2Ev(ptr noundef nonnull align 8 dereferenceable(24) %3) #9
  ret void
}

; Function Attrs: mustprogress nounwind uwtable
define linkonce_odr hidden void @_ZNSt7__cxx1112basic_stringIDsSt11char_traitsIDsESaIDsEEC2Ev(ptr noundef nonnull align 8 dereferenceable(32) %0) unnamed_addr #0 comdat align 2 {
  %2 = alloca ptr, align 8
  %3 = alloca %"class.std::allocator", align 1
  store ptr %0, ptr %2, align 8, !tbaa !55
  %4 = load ptr, ptr %2, align 8
  %5 = getelementptr inbounds nuw %"class.std::__cxx11::basic_string", ptr %4, i32 0, i32 0
  %6 = call noundef ptr @_ZNSt7__cxx1112basic_stringIDsSt11char_traitsIDsESaIDsEE13_M_local_dataEv(ptr noundef nonnull align 8 dereferenceable(32) %4)
  call void @llvm.lifetime.start.p0(i64 1, ptr %3) #9
  call void @_ZNSaIDsEC2Ev(ptr noundef nonnull align 1 dereferenceable(1) %3) #9
  call void @_ZNSt7__cxx1112basic_stringIDsSt11char_traitsIDsESaIDsEE12_Alloc_hiderC2EPDsOS3_(ptr noundef nonnull align 8 dereferenceable(8) %5, ptr noundef %6, ptr noundef nonnull align 1 dereferenceable(1) %3)
  call void @_ZNSt15__new_allocatorIDsED2Ev(ptr noundef nonnull align 1 dereferenceable(1) %3) #9
  call void @llvm.lifetime.end.p0(i64 1, ptr %3) #9
  %7 = call noundef ptr @_ZNSt7__cxx1112basic_stringIDsSt11char_traitsIDsESaIDsEE17_M_use_local_dataEv(ptr noundef nonnull align 8 dereferenceable(32) %4) #9
  call void @_ZNSt7__cxx1112basic_stringIDsSt11char_traitsIDsESaIDsEE13_M_set_lengthEm(ptr noundef nonnull align 8 dereferenceable(32) %4, i64 noundef 0)
  ret void
}

; Function Attrs: mustprogress nounwind uwtable
define linkonce_odr hidden void @_ZN4LIEF2PE12ResourceNodeC2ENS1_4TYPEE(ptr noundef nonnull align 8 dereferenceable(76) %0, i32 noundef %1) unnamed_addr #0 comdat align 2 {
  %3 = alloca ptr, align 8
  %4 = alloca i32, align 4
  store ptr %0, ptr %3, align 8, !tbaa !45
  store i32 %1, ptr %4, align 4, !tbaa !47
  %5 = load ptr, ptr %3, align 8
  call void @_ZN4LIEF6ObjectC2Ev(ptr noundef nonnull align 8 dereferenceable(8) %5)
  store ptr getelementptr inbounds inrange(-16, 48) ({ [8 x ptr] }, ptr @_ZTVN4LIEF2PE12ResourceNodeE, i32 0, i32 0, i32 2), ptr %5, align 8, !tbaa !18
  %6 = getelementptr inbounds nuw %"class.LIEF::PE::ResourceNode", ptr %5, i32 0, i32 1
  %7 = load i32, ptr %4, align 4, !tbaa !47
  store i32 %7, ptr %6, align 8, !tbaa !48
  %8 = getelementptr inbounds nuw %"class.LIEF::PE::ResourceNode", ptr %5, i32 0, i32 2
  store i32 0, ptr %8, align 4, !tbaa !49
  %9 = getelementptr inbounds nuw %"class.LIEF::PE::ResourceNode", ptr %5, i32 0, i32 3
  call void @_ZNSt7__cxx1112basic_stringIDsSt11char_traitsIDsESaIDsEEC2Ev(ptr noundef nonnull align 8 dereferenceable(32) %9) #9
  %10 = getelementptr inbounds nuw %"class.LIEF::PE::ResourceNode", ptr %5, i32 0, i32 4
  call void @_ZNSt6vectorISt10unique_ptrIN4LIEF2PE12ResourceNodeESt14default_deleteIS3_EESaIS6_EEC2Ev(ptr noundef nonnull align 8 dereferenceable(24) %10) #9
  %11 = getelementptr inbounds nuw %"class.LIEF::PE::ResourceNode", ptr %5, i32 0, i32 5
  store i32 0, ptr %11, align 8, !tbaa !50
  ret void
}

; Function Attrs: mustprogress nounwind uwtable
define void @_ZN4LIEF2PE17ResourceDirectoryC2ERKNS0_7details27pe_resource_directory_tableE(ptr noundef nonnull align 8 dereferenceable(92) %0, ptr noundef nonnull align 1 dereferenceable(16) %1) unnamed_addr #0 align 2 {
  %3 = alloca ptr, align 8
  %4 = alloca ptr, align 8
  store ptr %0, ptr %3, align 8, !tbaa !3
  store ptr %1, ptr %4, align 8, !tbaa !16
  %5 = load ptr, ptr %3, align 8
  call void @_ZN4LIEF2PE12ResourceNodeC2ENS1_4TYPEE(ptr noundef nonnull align 8 dereferenceable(76) %5, i32 noundef 2)
  store ptr getelementptr inbounds inrange(-16, 48) ({ [8 x ptr] }, ptr @_ZTVN4LIEF2PE17ResourceDirectoryE, i32 0, i32 0, i32 2), ptr %5, align 8, !tbaa !18
  %6 = getelementptr inbounds nuw %"class.LIEF::PE::ResourceDirectory", ptr %5, i32 0, i32 1
  %7 = load ptr, ptr %4, align 8, !tbaa !16
  %8 = getelementptr inbounds nuw %"struct.LIEF::PE::details::pe_resource_directory_table", ptr %7, i32 0, i32 0
  %9 = load i32, ptr %8, align 1, !tbaa !20
  store i32 %9, ptr %6, align 4, !tbaa !22
  %10 = getelementptr inbounds nuw %"class.LIEF::PE::ResourceDirectory", ptr %5, i32 0, i32 2
  %11 = load ptr, ptr %4, align 8, !tbaa !16
  %12 = getelementptr inbounds nuw %"struct.LIEF::PE::details::pe_resource_directory_table", ptr %11, i32 0, i32 1
  %13 = load i32, ptr %12, align 1, !tbaa !36
  store i32 %13, ptr %10, align 8, !tbaa !37
  %14 = getelementptr inbounds nuw %"class.LIEF::PE::ResourceDirectory", ptr %5, i32 0, i32 3
  %15 = load ptr, ptr %4, align 8, !tbaa !16
  %16 = getelementptr inbounds nuw %"struct.LIEF::PE::details::pe_resource_directory_table", ptr %15, i32 0, i32 2
  %17 = load i16, ptr %16, align 1, !tbaa !38
  store i16 %17, ptr %14, align 4, !tbaa !39
  %18 = getelementptr inbounds nuw %"class.LIEF::PE::ResourceDirectory", ptr %5, i32 0, i32 4
  %19 = load ptr, ptr %4, align 8, !tbaa !16
  %20 = getelementptr inbounds nuw %"struct.LIEF::PE::details::pe_resource_directory_table", ptr %19, i32 0, i32 2
  %21 = load i16, ptr %20, align 1, !tbaa !38
  store i16 %21, ptr %18, align 2, !tbaa !40
  %22 = getelementptr inbounds nuw %"class.LIEF::PE::ResourceDirectory", ptr %5, i32 0, i32 5
  %23 = load ptr, ptr %4, align 8, !tbaa !16
  %24 = getelementptr inbounds nuw %"struct.LIEF::PE::details::pe_resource_directory_table", ptr %23, i32 0, i32 4
  %25 = load i16, ptr %24, align 1, !tbaa !41
  store i16 %25, ptr %22, align 8, !tbaa !42
  %26 = getelementptr inbounds nuw %"class.LIEF::PE::ResourceDirectory", ptr %5, i32 0, i32 6
  %27 = load ptr, ptr %4, align 8, !tbaa !16
  %28 = getelementptr inbounds nuw %"struct.LIEF::PE::details::pe_resource_directory_table", ptr %27, i32 0, i32 5
  %29 = load i16, ptr %28, align 1, !tbaa !43
  store i16 %29, ptr %26, align 2, !tbaa !44
  ret void
}