; Function Attrs: mustprogress nounwind uwtable
define void @_ZN4LIEF2PE17ResourceDirectoryC2ERKNS0_7details27pe_resource_directory_tableE(ptr noundef nonnull align 8 dereferenceable(92) %0, ptr noundef nonnull readonly align 1 captures(none) dereferenceable(16) %1) unnamed_addr #0 align 2 {
  tail call void @_ZN4LIEF6ObjectC2Ev(ptr noundef nonnull align 8 dereferenceable(76) %0) #7
  %3 = getelementptr inbounds nuw i8, ptr %0, i64 8
  store i32 2, ptr %3, align 8, !tbaa !9
  %4 = getelementptr inbounds nuw i8, ptr %0, i64 12
  store i32 0, ptr %4, align 4, !tbaa !23
  %5 = getelementptr inbounds nuw i8, ptr %0, i64 16
  %6 = getelementptr inbounds nuw i8, ptr %0, i64 32
  store ptr %6, ptr %5, align 8, !tbaa !24
  %7 = getelementptr inbounds nuw i8, ptr %0, i64 24
  store i64 0, ptr %7, align 8, !tbaa !25
  store i16 0, ptr %6, align 8, !tbaa !26
  %8 = getelementptr inbounds nuw i8, ptr %0, i64 48
  tail call void @llvm.memset.p0.i64(ptr noundef nonnull align 8 dereferenceable(28) %8, i8 0, i64 28, i1 false)
  store ptr getelementptr inbounds nuw inrange(-16, 48) (i8, ptr @_ZTVN4LIEF2PE17ResourceDirectoryE, i64 16), ptr %0, align 8, !tbaa !28
  %9 = getelementptr inbounds nuw i8, ptr %0, i64 76
  %10 = load i32, ptr %1, align 1, !tbaa !30
  store i32 %10, ptr %9, align 4, !tbaa !32
  %11 = getelementptr inbounds nuw i8, ptr %0, i64 80
  %12 = getelementptr inbounds nuw i8, ptr %1, i64 4
  %13 = load i32, ptr %12, align 1, !tbaa !34
  store i32 %13, ptr %11, align 8, !tbaa !35
  %14 = getelementptr inbounds nuw i8, ptr %0, i64 84
  %15 = getelementptr inbounds nuw i8, ptr %1, i64 8
  %16 = load i16, ptr %15, align 1, !tbaa !36
  store i16 %16, ptr %14, align 4, !tbaa !37
  %17 = getelementptr inbounds nuw i8, ptr %0, i64 86
  store i16 %16, ptr %17, align 2, !tbaa !38
  %18 = getelementptr inbounds nuw i8, ptr %0, i64 88
  %19 = getelementptr inbounds nuw i8, ptr %1, i64 12
  %20 = load i16, ptr %19, align 1, !tbaa !39
  store i16 %20, ptr %18, align 8, !tbaa !40
  %21 = getelementptr inbounds nuw i8, ptr %0, i64 90
  %22 = getelementptr inbounds nuw i8, ptr %1, i64 14
  %23 = load i16, ptr %22, align 1, !tbaa !41
  store i16 %23, ptr %21, align 2, !tbaa !42
  ret void
}